; Function Attrs: nounwind uwtable
define noalias nonnull ptr @l_Lean_Elab_Command_elabInductiveCommand___elambda__1___lambda__1___boxed(ptr noundef %0, ptr noundef %1, ptr noundef %2, ptr noundef %3, ptr noundef %4, ptr noundef %5, ptr noundef %6, ptr noundef %7, ptr noundef %8) #0 {
  tail call void @lean_inc_heartbeat() #6
  %10 = tail call noalias ptr @mi_malloc_small(i64 noundef 24) #6
  %11 = icmp eq ptr %10, null
  br i1 %11, label %12, label %l_Lean_Elab_Command_elabInductiveCommand___elambda__1___lambda__1.exit

12:                                               ; preds = %9
  tail call void @lean_internal_panic_out_of_memory() #7
  unreachable

l_Lean_Elab_Command_elabInductiveCommand___elambda__1___lambda__1.exit: ; preds = %9
  %13 = getelementptr inbounds nuw i8, ptr %10, i64 4
  store i32 1, ptr %10, align 4, !tbaa !4
  store i32 131096, ptr %13, align 4
  %14 = getelementptr inbounds nuw i8, ptr %10, i64 8
  store ptr inttoptr (i64 1 to ptr), ptr %14, align 8, !tbaa !10
  %15 = getelementptr inbounds nuw i8, ptr %10, i64 16
  store ptr %8, ptr %15, align 8, !tbaa !10
  %16 = ptrtoint ptr %7 to i64
  %17 = and i64 %16, 1
  %.not = icmp eq i64 %17, 0
  br i1 %.not, label %18, label %lean_dec.exit24

18:                                               ; preds = %l_Lean_Elab_Command_elabInductiveCommand___elambda__1___lambda__1.exit
  %19 = load i32, ptr %7, align 4, !tbaa !4
  %20 = icmp sgt i32 %19, 1
  br i1 %20, label %21, label %23, !prof !9

21:                                               ; preds = %18
  %22 = add nsw i32 %19, -1
  store i32 %22, ptr %7, align 4, !tbaa !4
  br label %lean_dec.exit24

23:                                               ; preds = %18
  %.not.i = icmp eq i32 %19, 0
  br i1 %.not.i, label %lean_dec.exit24, label %24

24:                                               ; preds = %23
  tail call void @lean_dec_ref_cold(ptr noundef nonnull %7) #6
  br label %lean_dec.exit24

lean_dec.exit24:                                  ; preds = %24, %23, %21, %l_Lean_Elab_Command_elabInductiveCommand___elambda__1___lambda__1.exit
  %25 = ptrtoint ptr %6 to i64
  %26 = and i64 %25, 1
  %.not39 = icmp eq i64 %26, 0
  br i1 %.not39, label %27, label %lean_dec.exit23

27:                                               ; preds = %lean_dec.exit24
  %28 = load i32, ptr %6, align 4, !tbaa !4
  %29 = icmp sgt i32 %28, 1
  br i1 %29, label %30, label %32, !prof !9

30:                                               ; preds = %27
  %31 = add nsw i32 %28, -1
  store i32 %31, ptr %6, align 4, !tbaa !4
  br label %lean_dec.exit23

32:                                               ; preds = %27
  %.not.i25 = icmp eq i32 %28, 0
  br i1 %.not.i25, label %lean_dec.exit23, label %33

33:                                               ; preds = %32
  tail call void @lean_dec_ref_cold(ptr noundef nonnull %6) #6
  br label %lean_dec.exit23

lean_dec.exit23:                                  ; preds = %33, %32, %30, %lean_dec.exit24
  %34 = ptrtoint ptr %5 to i64
  %35 = and i64 %34, 1
  %.not40 = icmp eq i64 %35, 0
  br i1 %.not40, label %36, label %lean_dec.exit22

36:                                               ; preds = %lean_dec.exit23
  %37 = load i32, ptr %5, align 4, !tbaa !4
  %38 = icmp sgt i32 %37, 1
  br i1 %38, label %39, label %41, !prof !9

39:                                               ; preds = %36
  %40 = add nsw i32 %37, -1
  store i32 %40, ptr %5, align 4, !tbaa !4
  br label %lean_dec.exit22

41:                                               ; preds = %36
  %.not.i27 = icmp eq i32 %37, 0
  br i1 %.not.i27, label %lean_dec.exit22, label %42

42:                                               ; preds = %41
  tail call void @lean_dec_ref_cold(ptr noundef nonnull %5) #6
  br label %lean_dec.exit22

lean_dec.exit22:                                  ; preds = %42, %41, %39, %lean_dec.exit23
  %43 = ptrtoint ptr %4 to i64
  %44 = and i64 %43, 1
  %.not41 = icmp eq i64 %44, 0
  br i1 %.not41, label %45, label %lean_dec.exit21

45:                                               ; preds = %lean_dec.exit22
  %46 = load i32, ptr %4, align 4, !tbaa !4
  %47 = icmp sgt i32 %46, 1
  br i1 %47, label %48, label %50, !prof !9

48:                                               ; preds = %45
  %49 = add nsw i32 %46, -1
  store i32 %49, ptr %4, align 4, !tbaa !4
  br label %lean_dec.exit21

50:                                               ; preds = %45
  %.not.i29 = icmp eq i32 %46, 0
  br i1 %.not.i29, label %lean_dec.exit21, label %51

51:                                               ; preds = %50
  tail call void @lean_dec_ref_cold(ptr noundef nonnull %4) #6
  br label %lean_dec.exit21

lean_dec.exit21:                                  ; preds = %51, %50, %48, %lean_dec.exit22
  %52 = ptrtoint ptr %3 to i64
  %53 = and i64 %52, 1
  %.not42 = icmp eq i64 %53, 0
  br i1 %.not42, label %54, label %lean_dec.exit20

54:                                               ; preds = %lean_dec.exit21
  %55 = load i32, ptr %3, align 4, !tbaa !4
  %56 = icmp sgt i32 %55, 1
  br i1 %56, label %57, label %59, !prof !9

57:                                               ; preds = %54
  %58 = add nsw i32 %55, -1
  store i32 %58, ptr %3, align 4, !tbaa !4
  br label %lean_dec.exit20

59:                                               ; preds = %54
  %.not.i31 = icmp eq i32 %55, 0
  br i1 %.not.i31, label %lean_dec.exit20, label %60

60:                                               ; preds = %59
  tail call void @lean_dec_ref_cold(ptr noundef nonnull %3) #6
  br label %lean_dec.exit20

lean_dec.exit20:                                  ; preds = %60, %59, %57, %lean_dec.exit21
  %61 = ptrtoint ptr %2 to i64
  %62 = and i64 %61, 1
  %.not43 = icmp eq i64 %62, 0
  br i1 %.not43, label %63, label %lean_dec.exit19

63:                                               ; preds = %lean_dec.exit20
  %64 = load i32, ptr %2, align 4, !tbaa !4
  %65 = icmp sgt i32 %64, 1
  br i1 %65, label %66, label %68, !prof !9

66:                                               ; preds = %63
  %67 = add nsw i32 %64, -1
  store i32 %67, ptr %2, align 4, !tbaa !4
  br label %lean_dec.exit19

68:                                               ; preds = %63
  %.not.i33 = icmp eq i32 %64, 0
  br i1 %.not.i33, label %lean_dec.exit19, label %69

69:                                               ; preds = %68
  tail call void @lean_dec_ref_cold(ptr noundef nonnull %2) #6
  br label %lean_dec.exit19

lean_dec.exit19:                                  ; preds = %69, %68, %66, %lean_dec.exit20
  %70 = ptrtoint ptr %1 to i64
  %71 = and i64 %70, 1
  %.not44 = icmp eq i64 %71, 0
  br i1 %.not44, label %72, label %lean_dec.exit18

72:                                               ; preds = %lean_dec.exit19
  %73 = load i32, ptr %1, align 4, !tbaa !4
  %74 = icmp sgt i32 %73, 1
  br i1 %74, label %75, label %77, !prof !9

75:                                               ; preds = %72
  %76 = add nsw i32 %73, -1
  store i32 %76, ptr %1, align 4, !tbaa !4
  br label %lean_dec.exit18

77:                                               ; preds = %72
  %.not.i35 = icmp eq i32 %73, 0
  br i1 %.not.i35, label %lean_dec.exit18, label %78

78:                                               ; preds = %77
  tail call void @lean_dec_ref_cold(ptr noundef nonnull %1) #6
  br label %lean_dec.exit18

lean_dec.exit18:                                  ; preds = %78, %77, %75, %lean_dec.exit19
  %79 = ptrtoint ptr %0 to i64
  %80 = and i64 %79, 1
  %.not45 = icmp eq i64 %80, 0
  br i1 %.not45, label %81, label %lean_dec.exit

81:                                               ; preds = %lean_dec.exit18
  %82 = load i32, ptr %0, align 4, !tbaa !4
  %83 = icmp sgt i32 %82, 1
  br i1 %83, label %84, label %86, !prof !9

84:                                               ; preds = %81
  %85 = add nsw i32 %82, -1
  store i32 %85, ptr %0, align 4, !tbaa !4
  br label %lean_dec.exit

86:                                               ; preds = %81
  %.not.i37 = icmp eq i32 %82, 0
  br i1 %.not.i37, label %lean_dec.exit, label %87

87:                                               ; preds = %86
  tail call void @lean_dec_ref_cold(ptr noundef nonnull %0) #6
  br label %lean_dec.exit

lean_dec.exit:                                    ; preds = %87, %86, %84, %lean_dec.exit18
  ret ptr %10
}